target datalayout = "e-m:e-p270:32:32-p271:32:32-p272:64:64-i64:64-i128:128-f80:128-n8:16:32:64-S128"
target triple = "x86_64-pc-linux-gnu"

%struct.motion_vect = type { [2 x i32] }
%struct.RoqEncContext = type { %struct.RoqContext, ptr, %struct.AVLFG, i64, ptr, ptr, ptr, ptr, i32, ptr, ptr, %struct.RoqTempData, [1024 x %struct.roq_cell], [6144 x i32], ptr, ptr, ptr, i32, i32 }
%struct.RoqContext = type { ptr, ptr, ptr, ptr, i32, i32, [256 x %struct.roq_cell], [256 x %struct.roq_qcell] }
%struct.roq_cell = type { [4 x i8], i8, i8 }
%struct.roq_qcell = type { [4 x i32] }
%struct.AVLFG = type { [64 x i32], i32 }
%struct.RoqTempData = type { [256 x i32], [256 x i32], [256 x i32], [256 x i32], i32, i32, i32, %struct.RoqCodebooks, [4 x i32] }
%struct.RoqCodebooks = type { i32, i32, [256 x i32], [256 x i32], [3072 x i8], [12288 x i8], [49152 x i8] }
%struct.CelEvaluation = type { [4 x i32], i32, [4 x %struct.SubcelEvaluation], %struct.motion_vect, i32, i32, i32 }
%struct.SubcelEvaluation = type { [4 x i32], i32, i32, [4 x i32], %struct.motion_vect, i32 }

; Function Attrs: nounwind uwtable
define internal i32 @create_cel_evals(ptr noundef %0) #1 {
  %2 = alloca i32, align 4
  %3 = alloca ptr, align 8
  %4 = alloca ptr, align 8
  %5 = alloca i32, align 4
  %6 = alloca i32, align 4
  %7 = alloca i32, align 4
  %8 = alloca i32, align 4
  %9 = alloca i32, align 4
  store ptr %0, ptr %3, align 8, !tbaa !29
  call void @llvm.lifetime.start.p0(i64 8, ptr %4) #9
  %10 = load ptr, ptr %3, align 8, !tbaa !29
  %11 = getelementptr inbounds nuw %struct.RoqEncContext, ptr %10, i32 0, i32 0
  store ptr %11, ptr %4, align 8, !tbaa !31
  %12 = load ptr, ptr %4, align 8, !tbaa !31
  %13 = getelementptr inbounds nuw %struct.RoqContext, ptr %12, i32 0, i32 4
  %14 = load i32, ptr %13, align 8, !tbaa !47
  %15 = load ptr, ptr %4, align 8, !tbaa !31
  %16 = getelementptr inbounds nuw %struct.RoqContext, ptr %15, i32 0, i32 5
  %17 = load i32, ptr %16, align 4, !tbaa !48
  %18 = mul nsw i32 %14, %17
  %19 = sdiv i32 %18, 64
  %20 = sext i32 %19 to i64
  %21 = call ptr @av_malloc_array(i64 noundef %20, i64 noundef 248)
  %22 = load ptr, ptr %3, align 8, !tbaa !29
  %23 = getelementptr inbounds nuw %struct.RoqEncContext, ptr %22, i32 0, i32 14
  store ptr %21, ptr %23, align 8, !tbaa !76
  %24 = load ptr, ptr %3, align 8, !tbaa !29
  %25 = getelementptr inbounds nuw %struct.RoqEncContext, ptr %24, i32 0, i32 14
  %26 = load ptr, ptr %25, align 8, !tbaa !76
  %27 = icmp ne ptr %26, null
  br i1 %27, label %29, label %28

28:                                               ; preds = %1
  store i32 -12, ptr %2, align 4
  store i32 1, ptr %5, align 4
  br label %88

29:                                               ; preds = %1
  call void @llvm.lifetime.start.p0(i64 4, ptr %6) #9
  store i32 0, ptr %6, align 4, !tbaa !69
  call void @llvm.lifetime.start.p0(i64 4, ptr %7) #9
  store i32 0, ptr %7, align 4, !tbaa !69
  br label %30

30:                                               ; preds = %84, %29
  %31 = load i32, ptr %6, align 4, !tbaa !69
  %32 = load ptr, ptr %4, align 8, !tbaa !31
  %33 = getelementptr inbounds nuw %struct.RoqContext, ptr %32, i32 0, i32 5
  %34 = load i32, ptr %33, align 4, !tbaa !48
  %35 = icmp slt i32 %31, %34
  br i1 %35, label %37, label %36

36:                                               ; preds = %30
  store i32 2, ptr %5, align 4
  call void @llvm.lifetime.end.p0(i64 4, ptr %7) #9
  call void @llvm.lifetime.end.p0(i64 4, ptr %6) #9
  br label %87

37:                                               ; preds = %30
  call void @llvm.lifetime.start.p0(i64 4, ptr %8) #9
  store i32 0, ptr %8, align 4, !tbaa !69
  br label %38

38:                                               ; preds = %80, %37
  %39 = load i32, ptr %8, align 4, !tbaa !69
  %40 = load ptr, ptr %4, align 8, !tbaa !31
  %41 = getelementptr inbounds nuw %struct.RoqContext, ptr %40, i32 0, i32 4
  %42 = load i32, ptr %41, align 8, !tbaa !47
  %43 = icmp slt i32 %39, %42
  br i1 %43, label %45, label %44

44:                                               ; preds = %38
  store i32 5, ptr %5, align 4
  call void @llvm.lifetime.end.p0(i64 4, ptr %8) #9
  br label %83

45:                                               ; preds = %38
  call void @llvm.lifetime.start.p0(i64 4, ptr %9) #9
  store i32 0, ptr %9, align 4, !tbaa !69
  br label %46

46:                                               ; preds = %76, %45
  %47 = load i32, ptr %9, align 4, !tbaa !69
  %48 = icmp slt i32 %47, 4
  br i1 %48, label %50, label %49

49:                                               ; preds = %46
  store i32 8, ptr %5, align 4
  call void @llvm.lifetime.end.p0(i64 4, ptr %9) #9
  br label %79

50:                                               ; preds = %46
  %51 = load i32, ptr %8, align 4, !tbaa !69
  %52 = load i32, ptr %9, align 4, !tbaa !69
  %53 = and i32 %52, 1
  %54 = mul nsw i32 %53, 8
  %55 = add nsw i32 %51, %54
  %56 = load ptr, ptr %3, align 8, !tbaa !29
  %57 = getelementptr inbounds nuw %struct.RoqEncContext, ptr %56, i32 0, i32 14
  %58 = load ptr, ptr %57, align 8, !tbaa !76
  %59 = load i32, ptr %7, align 4, !tbaa !69
  %60 = sext i32 %59 to i64
  %61 = getelementptr inbounds %struct.CelEvaluation, ptr %58, i64 %60
  %62 = getelementptr inbounds nuw %struct.CelEvaluation, ptr %61, i32 0, i32 5
  store i32 %55, ptr %62, align 4, !tbaa !77
  %63 = load i32, ptr %6, align 4, !tbaa !69
  %64 = load i32, ptr %9, align 4, !tbaa !69
  %65 = and i32 %64, 2
  %66 = mul nsw i32 %65, 4
  %67 = add nsw i32 %63, %66
  %68 = load ptr, ptr %3, align 8, !tbaa !29
  %69 = getelementptr inbounds nuw %struct.RoqEncContext, ptr %68, i32 0, i32 14
  %70 = load ptr, ptr %69, align 8, !tbaa !76
  %71 = load i32, ptr %7, align 4, !tbaa !69
  %72 = add nsw i32 %71, 1
  store i32 %72, ptr %7, align 4, !tbaa !69
  %73 = sext i32 %71 to i64
  %74 = getelementptr inbounds %struct.CelEvaluation, ptr %70, i64 %73
  %75 = getelementptr inbounds nuw %struct.CelEvaluation, ptr %74, i32 0, i32 6
  store i32 %67, ptr %75, align 4, !tbaa !80
  br label %76

76:                                               ; preds = %50
  %77 = load i32, ptr %9, align 4, !tbaa !69
  %78 = add nsw i32 %77, 1
  store i32 %78, ptr %9, align 4, !tbaa !69
  br label %46, !llvm.loop !81

79:                                               ; preds = %49
  br label %80

80:                                               ; preds = %79
  %81 = load i32, ptr %8, align 4, !tbaa !69
  %82 = add nsw i32 %81, 16
  store i32 %82, ptr %8, align 4, !tbaa !69
  br label %38, !llvm.loop !83

83:                                               ; preds = %44
  br label %84

84:                                               ; preds = %83
  %85 = load i32, ptr %6, align 4, !tbaa !69
  %86 = add nsw i32 %85, 16
  store i32 %86, ptr %6, align 4, !tbaa !69
  br label %30, !llvm.loop !84

87:                                               ; preds = %36
  store i32 0, ptr %2, align 4
  store i32 1, ptr %5, align 4
  br label %88

88:                                               ; preds = %87, %28
  call void @llvm.lifetime.end.p0(i64 8, ptr %4) #9
  %89 = load i32, ptr %2, align 4
  ret i32 %89
}