; Function Attrs: nounwind uwtable
define internal fastcc range(i32 -12, 1) i32 @create_cel_evals(ptr noundef captures(none) initializes((107424, 107432)) %0) unnamed_addr #1 {
  %2 = getelementptr inbounds nuw i8, ptr %0, i64 32
  %3 = load i32, ptr %2, align 8, !tbaa !41
  %4 = getelementptr inbounds nuw i8, ptr %0, i64 36
  %5 = load i32, ptr %4, align 4, !tbaa !42
  %6 = mul nsw i32 %5, %3
  %7 = sdiv i32 %6, 64
  %8 = sext i32 %7 to i64
  %9 = tail call ptr @av_malloc_array(i64 noundef %8, i64 noundef 248) #9
  %10 = getelementptr inbounds nuw i8, ptr %0, i64 107424
  store ptr %9, ptr %10, align 8, !tbaa !95
  %.not = icmp eq ptr %9, null
  br i1 %.not, label %.loopexit, label %.preheader26

.preheader26:                                     ; preds = %1
  %11 = load i32, ptr %4, align 4, !tbaa !42
  %12 = icmp sgt i32 %11, 0
  br i1 %12, label %.preheader25.lr.ph, label %.loopexit

.preheader25.lr.ph:                               ; preds = %.preheader26
  %13 = load i32, ptr %2, align 8, !tbaa !41
  %14 = icmp sgt i32 %13, 0
  br i1 %14, label %.preheader25.us, label %.loopexit

.preheader25.us:                                  ; preds = %.preheader25.lr.ph, %._crit_edge.us
  %.02232.us = phi i64 [ %indvars.iv.next, %._crit_edge.us ], [ 0, %.preheader25.lr.ph ]
  %.02331.us = phi i32 [ %29, %._crit_edge.us ], [ 0, %.preheader25.lr.ph ]
  br label %.preheader.us

15:                                               ; preds = %18
  %16 = add nuw nsw i32 %.02130.us, 16
  %17 = icmp slt i32 %16, %13
  br i1 %17, label %.preheader.us, label %._crit_edge.us, !llvm.loop !135

18:                                               ; preds = %.preheader.us, %18
  %indvars.iv = phi i64 [ %28, %.preheader.us ], [ %indvars.iv.next, %18 ]
  %.028.us = phi i32 [ 0, %.preheader.us ], [ %27, %18 ]
  %19 = shl nuw nsw i32 %.028.us, 3
  %20 = and i32 %19, 8
  %21 = or disjoint i32 %20, %.02130.us
  %22 = getelementptr inbounds %struct.CelEvaluation, ptr %9, i64 %indvars.iv, i32 5
  store i32 %21, ptr %22, align 4, !tbaa !99
  %23 = shl nuw nsw i32 %.028.us, 2
  %24 = and i32 %23, 8
  %25 = or disjoint i32 %24, %.02331.us
  %indvars.iv.next = add nsw i64 %indvars.iv, 1
  %26 = getelementptr inbounds %struct.CelEvaluation, ptr %9, i64 %indvars.iv, i32 6
  store i32 %25, ptr %26, align 4, !tbaa !96
  %27 = add nuw nsw i32 %.028.us, 1
  %exitcond.not = icmp eq i32 %27, 4
  br i1 %exitcond.not, label %15, label %18, !llvm.loop !136

.preheader.us:                                    ; preds = %.preheader25.us, %15
  %.02130.us = phi i32 [ 0, %.preheader25.us ], [ %16, %15 ]
  %.129.us = phi i64 [ %.02232.us, %.preheader25.us ], [ %indvars.iv.next, %15 ]
  %sext = shl i64 %.129.us, 32
  %28 = ashr exact i64 %sext, 32
  br label %18

._crit_edge.us:                                   ; preds = %15
  %29 = add nuw nsw i32 %.02331.us, 16
  %30 = icmp slt i32 %29, %11
  br i1 %30, label %.preheader25.us, label %.loopexit, !llvm.loop !137

.loopexit:                                        ; preds = %._crit_edge.us, %.preheader25.lr.ph, %.preheader26, %1
  %.024 = phi i32 [ -12, %1 ], [ 0, %.preheader26 ], [ 0, %.preheader25.lr.ph ], [ 0, %._crit_edge.us ]
  ret i32 %.024
}